target datalayout = "e-m:e-p270:32:32-p271:32:32-p272:64:64-i64:64-i128:128-f80:128-n8:16:32:64-S128"
target triple = "x86_64-pc-linux-gnu"

%class.VarianceShadowMapping = type { %class.ShadowMapping.base, i32, i32, i32, i32, [4 x i8] }
%class.ShadowMapping.base = type <{ %class.DecorateShader, float, i32, i32, i32, i32 }>
%class.DecorateShader = type { ptr, i8, i32, i32, i32 }

@__glewDetachShader = external global ptr, align 8
@__glewDeleteShader = external global ptr, align 8
@__glewDeleteProgram = external global ptr, align 8
@__glewDeleteRenderbuffers = external global ptr, align 8

; Function Attrs: mustprogress nounwind uwtable
define void @_ZN21VarianceShadowMappingD2Ev(ptr noundef nonnull align 8 dereferenceable(60) %0) unnamed_addr #0 align 2 personality ptr @__gxx_personality_v0 {
  %2 = alloca ptr, align 8
  store ptr %0, ptr %2, align 8
  %3 = load ptr, ptr %2, align 8
  store ptr getelementptr inbounds ({ [8 x ptr] }, ptr @_ZTV21VarianceShadowMapping, i32 0, i32 0, i32 2), ptr %3, align 8
  %4 = load ptr, ptr @__glewDetachShader, align 8
  %5 = getelementptr inbounds %class.VarianceShadowMapping, ptr %3, i32 0, i32 2
  %6 = load i32, ptr %5, align 8
  %7 = getelementptr inbounds %class.VarianceShadowMapping, ptr %3, i32 0, i32 3
  %8 = load i32, ptr %7, align 4
  invoke void %4(i32 noundef %6, i32 noundef %8)
          to label %9 unwind label %31

9:                                                ; preds = %1
  %10 = load ptr, ptr @__glewDetachShader, align 8
  %11 = getelementptr inbounds %class.VarianceShadowMapping, ptr %3, i32 0, i32 2
  %12 = load i32, ptr %11, align 8
  %13 = getelementptr inbounds %class.VarianceShadowMapping, ptr %3, i32 0, i32 4
  %14 = load i32, ptr %13, align 8
  invoke void %10(i32 noundef %12, i32 noundef %14)
          to label %15 unwind label %31

15:                                               ; preds = %9
  %16 = load ptr, ptr @__glewDeleteShader, align 8
  %17 = getelementptr inbounds %class.VarianceShadowMapping, ptr %3, i32 0, i32 3
  %18 = load i32, ptr %17, align 4
  invoke void %16(i32 noundef %18)
          to label %19 unwind label %31

19:                                               ; preds = %15
  %20 = load ptr, ptr @__glewDeleteShader, align 8
  %21 = getelementptr inbounds %class.VarianceShadowMapping, ptr %3, i32 0, i32 4
  %22 = load i32, ptr %21, align 8
  invoke void %20(i32 noundef %22)
          to label %23 unwind label %31

23:                                               ; preds = %19
  %24 = load ptr, ptr @__glewDeleteProgram, align 8
  %25 = getelementptr inbounds %class.VarianceShadowMapping, ptr %3, i32 0, i32 2
  %26 = load i32, ptr %25, align 8
  invoke void %24(i32 noundef %26)
          to label %27 unwind label %31

27:                                               ; preds = %23
  %28 = load ptr, ptr @__glewDeleteRenderbuffers, align 8
  %29 = getelementptr inbounds %class.VarianceShadowMapping, ptr %3, i32 0, i32 1
  invoke void %28(i32 noundef 1, ptr noundef %29)
          to label %30 unwind label %31

30:                                               ; preds = %27
  call void @_ZN13ShadowMappingD2Ev(ptr noundef nonnull align 8 dereferenceable(44) %3) #5
  ret void

31:                                               ; preds = %27, %23, %19, %15, %9, %1
  %32 = landingpad { ptr, i32 }
          catch ptr null
  %33 = extractvalue { ptr, i32 } %32, 0
  call void @__clang_call_terminate(ptr %33) #19
  unreachable
}