; Function Attrs: mustprogress nounwind uwtable
define void @_ZN21VarianceShadowMappingD2Ev(ptr noundef nonnull align 8 dereferenceable(60) %0) unnamed_addr #0 align 2 personality ptr @__gxx_personality_v0 {
  store ptr getelementptr inbounds ({ [8 x ptr] }, ptr @_ZTV21VarianceShadowMapping, i64 0, i32 0, i64 2), ptr %0, align 8
  %2 = load ptr, ptr @__glewDetachShader, align 8
  %3 = getelementptr inbounds i8, ptr %0, i64 48
  %4 = load i32, ptr %3, align 8
  %5 = getelementptr inbounds i8, ptr %0, i64 52
  %6 = load i32, ptr %5, align 4
  invoke void %2(i32 noundef %4, i32 noundef %6)
          to label %7 unwind label %25

7:                                                ; preds = %1
  %8 = load ptr, ptr @__glewDetachShader, align 8
  %9 = load i32, ptr %3, align 8
  %10 = getelementptr inbounds i8, ptr %0, i64 56
  %11 = load i32, ptr %10, align 8
  invoke void %8(i32 noundef %9, i32 noundef %11)
          to label %12 unwind label %25

12:                                               ; preds = %7
  %13 = load ptr, ptr @__glewDeleteShader, align 8
  %14 = load i32, ptr %5, align 4
  invoke void %13(i32 noundef %14)
          to label %15 unwind label %25

15:                                               ; preds = %12
  %16 = load ptr, ptr @__glewDeleteShader, align 8
  %17 = load i32, ptr %10, align 8
  invoke void %16(i32 noundef %17)
          to label %18 unwind label %25

18:                                               ; preds = %15
  %19 = load ptr, ptr @__glewDeleteProgram, align 8
  %20 = load i32, ptr %3, align 8
  invoke void %19(i32 noundef %20)
          to label %21 unwind label %25

21:                                               ; preds = %18
  %22 = load ptr, ptr @__glewDeleteRenderbuffers, align 8
  %23 = getelementptr inbounds i8, ptr %0, i64 44
  invoke void %22(i32 noundef 1, ptr noundef nonnull %23)
          to label %24 unwind label %25

24:                                               ; preds = %21
  tail call void @_ZN13ShadowMappingD2Ev(ptr noundef nonnull align 8 dereferenceable(44) %0) #20
  ret void

25:                                               ; preds = %21, %18, %15, %12, %7, %1
  %26 = landingpad { ptr, i32 }
          catch ptr null
  %27 = extractvalue { ptr, i32 } %26, 0
  tail call void @__clang_call_terminate(ptr %27) #23
  unreachable
}